target datalayout = "e-m:e-p270:32:32-p271:32:32-p272:64:64-i64:64-i128:128-f80:128-n8:16:32:64-S128"
target triple = "x86_64-unknown-linux-gnu"

%"class.QuantLib::Date" = type { i64 }

; Function Attrs: inlinehint mustprogress uwtable
define linkonce_odr noundef i32 @_ZNK8QuantLib4Date9dayOfYearEv(ptr noundef nonnull align 8 dereferenceable(8) %this) #5 comdat align 2 {
entry:
  %this.addr = alloca ptr, align 8
  store ptr %this, ptr %this.addr, align 8, !tbaa !3
  %this1 = load ptr, ptr %this.addr, align 8
  %serialNumber_ = getelementptr inbounds nuw %"class.QuantLib::Date", ptr %this1, i32 0, i32 0
  %0 = load i64, ptr %serialNumber_, align 8, !tbaa !18
  %call = call noundef i32 @_ZNK8QuantLib4Date4yearEv(ptr noundef nonnull align 8 dereferenceable(8) %this1)
  %call2 = call noundef i64 @_ZN8QuantLib4Date10yearOffsetEi(i32 noundef %call)
  %sub = sub nsw i64 %0, %call2
  %conv = trunc i64 %sub to i32
  ret i32 %conv
}

; Function Attrs: mustprogress uwtable
define noundef zeroext i1 @_ZNK8QuantLib12UnitedStates8SofrImpl13isBusinessDayERKNS_4DateE(ptr noundef nonnull align 8 dereferenceable(104) %this, ptr noundef nonnull align 8 dereferenceable(8) %date) unnamed_addr #0 align 2 {
entry:
  %retval = alloca i1, align 1
  %this.addr = alloca ptr, align 8
  %date.addr = alloca ptr, align 8
  %dY = alloca i32, align 4
  %y = alloca i32, align 4
  %cleanup.dest.slot = alloca i32, align 4
  store ptr %this, ptr %this.addr, align 8, !tbaa !3
  store ptr %date, ptr %date.addr, align 8, !tbaa !3
  %this1 = load ptr, ptr %this.addr, align 8
  call void @llvm.lifetime.start.p0(i64 4, ptr %dY) #2
  %0 = load ptr, ptr %date.addr, align 8, !tbaa !3
  %call = call noundef i32 @_ZNK8QuantLib4Date9dayOfYearEv(ptr noundef nonnull align 8 dereferenceable(8) %0)
  store i32 %call, ptr %dY, align 4, !tbaa !14
  call void @llvm.lifetime.start.p0(i64 4, ptr %y) #2
  %1 = load ptr, ptr %date.addr, align 8, !tbaa !3
  %call2 = call noundef i32 @_ZNK8QuantLib4Date4yearEv(ptr noundef nonnull align 8 dereferenceable(8) %1)
  store i32 %call2, ptr %y, align 4, !tbaa !14
  %2 = load i32, ptr %dY, align 4, !tbaa !14
  %3 = load i32, ptr %y, align 4, !tbaa !14
  %call3 = call noundef i32 @_ZN8QuantLib8Calendar11WesternImpl12easterMondayEi(i32 noundef %3)
  %sub = sub nsw i32 %call3, 3
  %cmp = icmp eq i32 %2, %sub
  br i1 %cmp, label %if.then, label %if.end

if.then:                                          ; preds = %entry
  store i1 false, ptr %retval, align 1
  store i32 1, ptr %cleanup.dest.slot, align 4
  br label %cleanup

if.end:                                           ; preds = %entry
  %4 = load ptr, ptr %date.addr, align 8, !tbaa !3
  %call4 = call noundef zeroext i1 @_ZNK8QuantLib12UnitedStates18GovernmentBondImpl13isBusinessDayERKNS_4DateE(ptr noundef nonnull align 8 dereferenceable(104) %this1, ptr noundef nonnull align 8 dereferenceable(8) %4)
  store i1 %call4, ptr %retval, align 1
  store i32 1, ptr %cleanup.dest.slot, align 4
  br label %cleanup

cleanup:                                          ; preds = %if.end, %if.then
  call void @llvm.lifetime.end.p0(i64 4, ptr %y) #2
  call void @llvm.lifetime.end.p0(i64 4, ptr %dY) #2
  %5 = load i1, ptr %retval, align 1
  ret i1 %5
}