; Function Attrs: mustprogress uwtable
define noundef zeroext i1 @_ZNK8QuantLib12UnitedStates8SofrImpl13isBusinessDayERKNS_4DateE(ptr noundef nonnull align 8 dereferenceable(104) %this, ptr noundef nonnull align 8 dereferenceable(8) %date) unnamed_addr #0 align 2 {
entry:
  %0 = load i64, ptr %date, align 8, !tbaa !74
  %call.i = tail call noundef i32 @_ZNK8QuantLib4Date4yearEv(ptr noundef nonnull align 8 dereferenceable(8) %date)
  %call2.i = tail call noundef i64 @_ZN8QuantLib4Date10yearOffsetEi(i32 noundef %call.i)
  %sub.i = sub nsw i64 %0, %call2.i
  %conv.i = trunc i64 %sub.i to i32
  %call2 = tail call noundef i32 @_ZNK8QuantLib4Date4yearEv(ptr noundef nonnull align 8 dereferenceable(8) %date)
  %call3 = tail call noundef i32 @_ZN8QuantLib8Calendar11WesternImpl12easterMondayEi(i32 noundef %call2)
  %sub = add nsw i32 %call3, -3
  %cmp = icmp eq i32 %sub, %conv.i
  br i1 %cmp, label %cleanup, label %if.end

if.end:                                           ; preds = %entry
  %call4 = tail call noundef zeroext i1 @_ZNK8QuantLib12UnitedStates18GovernmentBondImpl13isBusinessDayERKNS_4DateE(ptr noundef nonnull align 8 dereferenceable(104) %this, ptr noundef nonnull align 8 dereferenceable(8) %date)
  br label %cleanup

cleanup:                                          ; preds = %entry, %if.end
  %retval.0 = phi i1 [ %call4, %if.end ], [ false, %entry ]
  ret i1 %retval.0
}